target datalayout = "e-m:e-p270:32:32-p271:32:32-p272:64:64-i64:64-i128:128-f80:128-n8:16:32:64-S128"
target triple = "x86_64-pc-linux-gnu"

%struct.textlabel_t = type { ptr, ptr, ptr, i32, double, %struct.pointf_s, %struct.pointf_s, %struct.pointf_s, %union.anon, i8, i8, i8 }
%struct.pointf_s = type { double, double }
%union.anon = type { %struct.anon }
%struct.anon = type { ptr, i64 }
%struct.textspan_t = type { ptr, ptr, ptr, ptr, double, double, %struct.pointf_s, i8 }
%struct.point = type { i32, i32 }
%struct.boxf = type { %struct.pointf_s, %struct.pointf_s }
%struct.color_s = type { %union.anon.4, i32 }
%union.anon.4 = type { [4 x double] }
%struct.GVJ_s = type { ptr, ptr, ptr, ptr, ptr, ptr, i32, ptr, ptr, ptr, ptr, i64, i64, ptr, i32, %struct.gvplugin_active_render_s, %struct.gvplugin_active_device_s, %struct.gvplugin_active_loadimage_t, ptr, %struct.pointf_s, i8, ptr, i32, ptr, i8, ptr, i32, i32, i32, %struct.point, %struct.point, %struct.point, %struct.point, %struct.point, i32, %struct.boxf, %struct.pointf_s, %struct.boxf, %struct.boxf, %struct.pointf_s, %struct.pointf_s, double, i32, %struct.pointf_s, %struct.boxf, %struct.pointf_s, %struct.pointf_s, i32, i32, %struct.box, %struct.box, %struct.pointf_s, %struct.pointf_s, %struct.pointf_s, i8, i8, i8, i8, i8, i8, %struct.pointf_s, %struct.pointf_s, ptr, ptr, ptr, ptr, ptr, ptr, i64, ptr }
%struct.gvplugin_active_render_s = type { ptr, i32, ptr, ptr }
%struct.gvplugin_active_device_s = type { ptr, i32, ptr, ptr }
%struct.gvplugin_active_loadimage_t = type { ptr, i32, ptr }
%struct.box = type { %struct.point, %struct.point }
%struct.obj_state_s = type { ptr, i32, %union.anon.3, i32, %struct.color_s, %struct.color_s, %struct.color_s, i32, double, i32, i32, double, ptr, double, double, double, ptr, ptr, ptr, ptr, ptr, ptr, ptr, ptr, ptr, ptr, ptr, ptr, ptr, ptr, ptr, ptr, ptr, i16, i32, i64, ptr, i64, ptr, ptr, i32, ptr, i32, ptr }
%union.anon.3 = type { ptr }

; Function Attrs: nounwind uwtable
define void @emit_label(ptr noundef %0, i32 noundef %1, ptr noundef %2) #0 {
  %4 = alloca ptr, align 8
  %5 = alloca i32, align 4
  %6 = alloca ptr, align 8
  %7 = alloca ptr, align 8
  %8 = alloca %struct.pointf_s, align 8
  %9 = alloca i32, align 4
  %10 = alloca i32, align 4
  %11 = alloca i64, align 8
  store ptr %0, ptr %4, align 8, !tbaa !121
  store i32 %1, ptr %5, align 4, !tbaa !65
  store ptr %2, ptr %6, align 8, !tbaa !8
  call void @llvm.lifetime.start.p0(i64 8, ptr %7) #13
  %12 = load ptr, ptr %4, align 8, !tbaa !121
  %13 = getelementptr inbounds nuw %struct.GVJ_s, ptr %12, i32 0, i32 4
  %14 = load ptr, ptr %13, align 8, !tbaa !122
  store ptr %14, ptr %7, align 8, !tbaa !135
  call void @llvm.lifetime.start.p0(i64 16, ptr %8) #13
  call void @llvm.lifetime.start.p0(i64 4, ptr %9) #13
  %15 = load ptr, ptr %7, align 8, !tbaa !135
  %16 = getelementptr inbounds nuw %struct.obj_state_s, ptr %15, i32 0, i32 3
  %17 = load i32, ptr %16, align 8, !tbaa !136
  store i32 %17, ptr %9, align 4, !tbaa !65
  %18 = load i32, ptr %5, align 4, !tbaa !65
  %19 = load ptr, ptr %7, align 8, !tbaa !135
  %20 = getelementptr inbounds nuw %struct.obj_state_s, ptr %19, i32 0, i32 3
  store i32 %18, ptr %20, align 8, !tbaa !136
  %21 = load ptr, ptr %6, align 8, !tbaa !8
  %22 = getelementptr inbounds nuw %struct.textlabel_t, ptr %21, i32 0, i32 11
  %23 = load i8, ptr %22, align 2, !tbaa !95, !range !115, !noundef !116
  %24 = trunc i8 %23 to i1
  br i1 %24, label %25, label %34

25:                                               ; preds = %3
  %26 = load ptr, ptr %4, align 8, !tbaa !121
  %27 = load ptr, ptr %6, align 8, !tbaa !8
  %28 = getelementptr inbounds nuw %struct.textlabel_t, ptr %27, i32 0, i32 8
  %29 = load ptr, ptr %28, align 8, !tbaa !19
  %30 = load ptr, ptr %6, align 8, !tbaa !8
  call void @emit_html_label(ptr noundef %26, ptr noundef %29, ptr noundef %30)
  %31 = load i32, ptr %9, align 4, !tbaa !65
  %32 = load ptr, ptr %7, align 8, !tbaa !135
  %33 = getelementptr inbounds nuw %struct.obj_state_s, ptr %32, i32 0, i32 3
  store i32 %31, ptr %33, align 8, !tbaa !136
  store i32 1, ptr %10, align 4
  br label %203

34:                                               ; preds = %3
  %35 = load ptr, ptr %6, align 8, !tbaa !8
  %36 = getelementptr inbounds nuw %struct.textlabel_t, ptr %35, i32 0, i32 8
  %37 = getelementptr inbounds nuw %struct.anon, ptr %36, i32 0, i32 1
  %38 = load i64, ptr %37, align 8, !tbaa !19
  %39 = icmp ult i64 %38, 1
  br i1 %39, label %40, label %41

40:                                               ; preds = %34
  store i32 1, ptr %10, align 4
  br label %203

41:                                               ; preds = %34
  %42 = load ptr, ptr %4, align 8, !tbaa !121
  call void @gvrender_begin_label(ptr noundef %42, i32 noundef 0)
  %43 = load ptr, ptr %4, align 8, !tbaa !121
  %44 = load ptr, ptr %6, align 8, !tbaa !8
  %45 = getelementptr inbounds nuw %struct.textlabel_t, ptr %44, i32 0, i32 2
  %46 = load ptr, ptr %45, align 8, !tbaa !82
  call void @gvrender_set_pencolor(ptr noundef %43, ptr noundef %46)
  %47 = load ptr, ptr %6, align 8, !tbaa !8
  %48 = getelementptr inbounds nuw %struct.textlabel_t, ptr %47, i32 0, i32 9
  %49 = load i8, ptr %48, align 8, !tbaa !139
  %50 = sext i8 %49 to i32
  switch i32 %50, label %89 [
    i32 116, label %51
    i32 98, label %67
    i32 99, label %88
  ]

51:                                               ; preds = %41
  %52 = load ptr, ptr %6, align 8, !tbaa !8
  %53 = getelementptr inbounds nuw %struct.textlabel_t, ptr %52, i32 0, i32 7
  %54 = getelementptr inbounds nuw %struct.pointf_s, ptr %53, i32 0, i32 1
  %55 = load double, ptr %54, align 8, !tbaa !140
  %56 = load ptr, ptr %6, align 8, !tbaa !8
  %57 = getelementptr inbounds nuw %struct.textlabel_t, ptr %56, i32 0, i32 6
  %58 = getelementptr inbounds nuw %struct.pointf_s, ptr %57, i32 0, i32 1
  %59 = load double, ptr %58, align 8, !tbaa !141
  %60 = fdiv double %59, 2.000000e+00
  %61 = fadd double %55, %60
  %62 = load ptr, ptr %6, align 8, !tbaa !8
  %63 = getelementptr inbounds nuw %struct.textlabel_t, ptr %62, i32 0, i32 4
  %64 = load double, ptr %63, align 8, !tbaa !36
  %65 = fsub double %61, %64
  %66 = getelementptr inbounds nuw %struct.pointf_s, ptr %8, i32 0, i32 1
  store double %65, ptr %66, align 8, !tbaa !63
  br label %105

67:                                               ; preds = %41
  %68 = load ptr, ptr %6, align 8, !tbaa !8
  %69 = getelementptr inbounds nuw %struct.textlabel_t, ptr %68, i32 0, i32 7
  %70 = getelementptr inbounds nuw %struct.pointf_s, ptr %69, i32 0, i32 1
  %71 = load double, ptr %70, align 8, !tbaa !140
  %72 = load ptr, ptr %6, align 8, !tbaa !8
  %73 = getelementptr inbounds nuw %struct.textlabel_t, ptr %72, i32 0, i32 6
  %74 = getelementptr inbounds nuw %struct.pointf_s, ptr %73, i32 0, i32 1
  %75 = load double, ptr %74, align 8, !tbaa !141
  %76 = fdiv double %75, 2.000000e+00
  %77 = fsub double %71, %76
  %78 = load ptr, ptr %6, align 8, !tbaa !8
  %79 = getelementptr inbounds nuw %struct.textlabel_t, ptr %78, i32 0, i32 5
  %80 = getelementptr inbounds nuw %struct.pointf_s, ptr %79, i32 0, i32 1
  %81 = load double, ptr %80, align 8, !tbaa !10
  %82 = fadd double %77, %81
  %83 = load ptr, ptr %6, align 8, !tbaa !8
  %84 = getelementptr inbounds nuw %struct.textlabel_t, ptr %83, i32 0, i32 4
  %85 = load double, ptr %84, align 8, !tbaa !36
  %86 = fsub double %82, %85
  %87 = getelementptr inbounds nuw %struct.pointf_s, ptr %8, i32 0, i32 1
  store double %86, ptr %87, align 8, !tbaa !63
  br label %105

88:                                               ; preds = %41
  br label %89

89:                                               ; preds = %41, %88
  %90 = load ptr, ptr %6, align 8, !tbaa !8
  %91 = getelementptr inbounds nuw %struct.textlabel_t, ptr %90, i32 0, i32 7
  %92 = getelementptr inbounds nuw %struct.pointf_s, ptr %91, i32 0, i32 1
  %93 = load double, ptr %92, align 8, !tbaa !140
  %94 = load ptr, ptr %6, align 8, !tbaa !8
  %95 = getelementptr inbounds nuw %struct.textlabel_t, ptr %94, i32 0, i32 5
  %96 = getelementptr inbounds nuw %struct.pointf_s, ptr %95, i32 0, i32 1
  %97 = load double, ptr %96, align 8, !tbaa !10
  %98 = fdiv double %97, 2.000000e+00
  %99 = fadd double %93, %98
  %100 = load ptr, ptr %6, align 8, !tbaa !8
  %101 = getelementptr inbounds nuw %struct.textlabel_t, ptr %100, i32 0, i32 4
  %102 = load double, ptr %101, align 8, !tbaa !36
  %103 = fsub double %99, %102
  %104 = getelementptr inbounds nuw %struct.pointf_s, ptr %8, i32 0, i32 1
  store double %103, ptr %104, align 8, !tbaa !63
  br label %105

105:                                              ; preds = %89, %67, %51
  %106 = load ptr, ptr %7, align 8, !tbaa !135
  %107 = getelementptr inbounds nuw %struct.obj_state_s, ptr %106, i32 0, i32 33
  %108 = load i16, ptr %107, align 8
  %109 = lshr i16 %108, 9
  %110 = and i16 %109, 1
  %111 = zext i16 %110 to i32
  %112 = icmp ne i32 %111, 0
  br i1 %112, label %113, label %121

113:                                              ; preds = %105
  %114 = load ptr, ptr %6, align 8, !tbaa !8
  %115 = getelementptr inbounds nuw %struct.textlabel_t, ptr %114, i32 0, i32 7
  %116 = getelementptr inbounds nuw %struct.pointf_s, ptr %115, i32 0, i32 1
  %117 = load double, ptr %116, align 8, !tbaa !140
  %118 = getelementptr inbounds nuw %struct.pointf_s, ptr %8, i32 0, i32 1
  %119 = load double, ptr %118, align 8, !tbaa !63
  %120 = fsub double %119, %117
  store double %120, ptr %118, align 8, !tbaa !63
  br label %121

121:                                              ; preds = %113, %105
  call void @llvm.lifetime.start.p0(i64 8, ptr %11) #13
  store i64 0, ptr %11, align 8, !tbaa !27
  br label %122

122:                                              ; preds = %195, %121
  %123 = load i64, ptr %11, align 8, !tbaa !27
  %124 = load ptr, ptr %6, align 8, !tbaa !8
  %125 = getelementptr inbounds nuw %struct.textlabel_t, ptr %124, i32 0, i32 8
  %126 = getelementptr inbounds nuw %struct.anon, ptr %125, i32 0, i32 1
  %127 = load i64, ptr %126, align 8, !tbaa !19
  %128 = icmp ult i64 %123, %127
  br i1 %128, label %130, label %129

129:                                              ; preds = %122
  store i32 3, ptr %10, align 4
  call void @llvm.lifetime.end.p0(i64 8, ptr %11) #13
  br label %198

130:                                              ; preds = %122
  %131 = load ptr, ptr %6, align 8, !tbaa !8
  %132 = getelementptr inbounds nuw %struct.textlabel_t, ptr %131, i32 0, i32 8
  %133 = getelementptr inbounds nuw %struct.anon, ptr %132, i32 0, i32 0
  %134 = load ptr, ptr %133, align 8, !tbaa !19
  %135 = load i64, ptr %11, align 8, !tbaa !27
  %136 = getelementptr inbounds nuw %struct.textspan_t, ptr %134, i64 %135
  %137 = getelementptr inbounds nuw %struct.textspan_t, ptr %136, i32 0, i32 7
  %138 = load i8, ptr %137, align 8, !tbaa !31
  %139 = sext i8 %138 to i32
  switch i32 %139, label %164 [
    i32 108, label %140
    i32 114, label %152
    i32 110, label %165
  ]

140:                                              ; preds = %130
  %141 = load ptr, ptr %6, align 8, !tbaa !8
  %142 = getelementptr inbounds nuw %struct.textlabel_t, ptr %141, i32 0, i32 7
  %143 = getelementptr inbounds nuw %struct.pointf_s, ptr %142, i32 0, i32 0
  %144 = load double, ptr %143, align 8, !tbaa !142
  %145 = load ptr, ptr %6, align 8, !tbaa !8
  %146 = getelementptr inbounds nuw %struct.textlabel_t, ptr %145, i32 0, i32 6
  %147 = getelementptr inbounds nuw %struct.pointf_s, ptr %146, i32 0, i32 0
  %148 = load double, ptr %147, align 8, !tbaa !143
  %149 = fdiv double %148, 2.000000e+00
  %150 = fsub double %144, %149
  %151 = getelementptr inbounds nuw %struct.pointf_s, ptr %8, i32 0, i32 0
  store double %150, ptr %151, align 8, !tbaa !62
  br label %171

152:                                              ; preds = %130
  %153 = load ptr, ptr %6, align 8, !tbaa !8
  %154 = getelementptr inbounds nuw %struct.textlabel_t, ptr %153, i32 0, i32 7
  %155 = getelementptr inbounds nuw %struct.pointf_s, ptr %154, i32 0, i32 0
  %156 = load double, ptr %155, align 8, !tbaa !142
  %157 = load ptr, ptr %6, align 8, !tbaa !8
  %158 = getelementptr inbounds nuw %struct.textlabel_t, ptr %157, i32 0, i32 6
  %159 = getelementptr inbounds nuw %struct.pointf_s, ptr %158, i32 0, i32 0
  %160 = load double, ptr %159, align 8, !tbaa !143
  %161 = fdiv double %160, 2.000000e+00
  %162 = fadd double %156, %161
  %163 = getelementptr inbounds nuw %struct.pointf_s, ptr %8, i32 0, i32 0
  store double %162, ptr %163, align 8, !tbaa !62
  br label %171

164:                                              ; preds = %130
  br label %165

165:                                              ; preds = %130, %164
  %166 = load ptr, ptr %6, align 8, !tbaa !8
  %167 = getelementptr inbounds nuw %struct.textlabel_t, ptr %166, i32 0, i32 7
  %168 = getelementptr inbounds nuw %struct.pointf_s, ptr %167, i32 0, i32 0
  %169 = load double, ptr %168, align 8, !tbaa !142
  %170 = getelementptr inbounds nuw %struct.pointf_s, ptr %8, i32 0, i32 0
  store double %169, ptr %170, align 8, !tbaa !62
  br label %171

171:                                              ; preds = %165, %152, %140
  %172 = load ptr, ptr %4, align 8, !tbaa !121
  %173 = load ptr, ptr %6, align 8, !tbaa !8
  %174 = getelementptr inbounds nuw %struct.textlabel_t, ptr %173, i32 0, i32 8
  %175 = getelementptr inbounds nuw %struct.anon, ptr %174, i32 0, i32 0
  %176 = load ptr, ptr %175, align 8, !tbaa !19
  %177 = load i64, ptr %11, align 8, !tbaa !27
  %178 = getelementptr inbounds nuw %struct.textspan_t, ptr %176, i64 %177
  %179 = getelementptr inbounds nuw { double, double }, ptr %8, i32 0, i32 0
  %180 = load double, ptr %179, align 8
  %181 = getelementptr inbounds nuw { double, double }, ptr %8, i32 0, i32 1
  %182 = load double, ptr %181, align 8
  call void @gvrender_textspan(ptr noundef %172, double %180, double %182, ptr noundef %178)
  %183 = load ptr, ptr %6, align 8, !tbaa !8
  %184 = getelementptr inbounds nuw %struct.textlabel_t, ptr %183, i32 0, i32 8
  %185 = getelementptr inbounds nuw %struct.anon, ptr %184, i32 0, i32 0
  %186 = load ptr, ptr %185, align 8, !tbaa !19
  %187 = load i64, ptr %11, align 8, !tbaa !27
  %188 = getelementptr inbounds nuw %struct.textspan_t, ptr %186, i64 %187
  %189 = getelementptr inbounds nuw %struct.textspan_t, ptr %188, i32 0, i32 6
  %190 = getelementptr inbounds nuw %struct.pointf_s, ptr %189, i32 0, i32 1
  %191 = load double, ptr %190, align 8, !tbaa !64
  %192 = getelementptr inbounds nuw %struct.pointf_s, ptr %8, i32 0, i32 1
  %193 = load double, ptr %192, align 8, !tbaa !63
  %194 = fsub double %193, %191
  store double %194, ptr %192, align 8, !tbaa !63
  br label %195

195:                                              ; preds = %171
  %196 = load i64, ptr %11, align 8, !tbaa !27
  %197 = add i64 %196, 1
  store i64 %197, ptr %11, align 8, !tbaa !27
  br label %122, !llvm.loop !144

198:                                              ; preds = %129
  %199 = load ptr, ptr %4, align 8, !tbaa !121
  call void @gvrender_end_label(ptr noundef %199)
  %200 = load i32, ptr %9, align 4, !tbaa !65
  %201 = load ptr, ptr %7, align 8, !tbaa !135
  %202 = getelementptr inbounds nuw %struct.obj_state_s, ptr %201, i32 0, i32 3
  store i32 %200, ptr %202, align 8, !tbaa !136
  store i32 0, ptr %10, align 4
  br label %203

203:                                              ; preds = %198, %40, %25
  call void @llvm.lifetime.end.p0(i64 4, ptr %9) #13
  call void @llvm.lifetime.end.p0(i64 16, ptr %8) #13
  call void @llvm.lifetime.end.p0(i64 8, ptr %7) #13
  %204 = load i32, ptr %10, align 4
  switch i32 %204, label %206 [
    i32 0, label %205
    i32 1, label %205
  ]

205:                                              ; preds = %203, %203
  ret void

206:                                              ; preds = %203
  unreachable
}