; Function Attrs: nounwind uwtable
define void @emit_label(ptr noundef %0, i32 noundef %1, ptr noundef %2) local_unnamed_addr #0 {
  %4 = getelementptr inbounds nuw i8, ptr %0, i64 32
  %5 = load ptr, ptr %4, align 8, !tbaa !108
  %6 = getelementptr inbounds nuw i8, ptr %5, i64 24
  %7 = load i32, ptr %6, align 8, !tbaa !121
  store i32 %1, ptr %6, align 8, !tbaa !121
  %8 = getelementptr inbounds nuw i8, ptr %2, i64 106
  %9 = load i8, ptr %8, align 2, !tbaa !85, !range !106, !noundef !107
  %10 = trunc nuw i8 %9 to i1
  %11 = getelementptr inbounds nuw i8, ptr %2, i64 88
  br i1 %10, label %12, label %14

12:                                               ; preds = %3
  %13 = load ptr, ptr %11, align 8, !tbaa !13
  tail call void @emit_html_label(ptr noundef nonnull %0, ptr noundef %13, ptr noundef nonnull %2) #16
  br label %.sink.split

14:                                               ; preds = %3
  %15 = getelementptr inbounds nuw i8, ptr %2, i64 96
  %16 = load i64, ptr %15, align 8, !tbaa !13
  %17 = icmp eq i64 %16, 0
  br i1 %17, label %76, label %18

18:                                               ; preds = %14
  tail call void @gvrender_begin_label(ptr noundef nonnull %0, i32 noundef 0) #16
  %19 = getelementptr inbounds nuw i8, ptr %2, i64 16
  %20 = load ptr, ptr %19, align 8, !tbaa !70
  tail call void @gvrender_set_pencolor(ptr noundef nonnull %0, ptr noundef %20) #16
  %21 = getelementptr inbounds nuw i8, ptr %2, i64 104
  %22 = load i8, ptr %21, align 8, !tbaa !124
  %23 = getelementptr inbounds nuw i8, ptr %2, i64 80
  %24 = load double, ptr %23, align 8, !tbaa !125
  switch i8 %22, label %38 [
    i8 116, label %25
    i8 98, label %30
  ]

25:                                               ; preds = %18
  %26 = getelementptr inbounds nuw i8, ptr %2, i64 64
  %27 = load double, ptr %26, align 8, !tbaa !126
  %28 = fmul double %27, 5.000000e-01
  %29 = fadd double %24, %28
  br label %43

30:                                               ; preds = %18
  %31 = getelementptr inbounds nuw i8, ptr %2, i64 64
  %32 = load double, ptr %31, align 8, !tbaa !126
  %33 = fmul double %32, 5.000000e-01
  %34 = fsub double %24, %33
  %35 = getelementptr inbounds nuw i8, ptr %2, i64 48
  %36 = load double, ptr %35, align 8, !tbaa !56
  %37 = fadd double %36, %34
  br label %43

38:                                               ; preds = %18
  %39 = getelementptr inbounds nuw i8, ptr %2, i64 48
  %40 = load double, ptr %39, align 8, !tbaa !56
  %41 = fmul double %40, 5.000000e-01
  %42 = fadd double %24, %41
  br label %43

43:                                               ; preds = %38, %30, %25
  %.sink = phi double [ %42, %38 ], [ %37, %30 ], [ %29, %25 ]
  %44 = load i64, ptr %15, align 8, !tbaa !13
  %.not48 = icmp eq i64 %44, 0
  br i1 %.not48, label %._crit_edge, label %.lr.ph

.lr.ph:                                           ; preds = %43
  %45 = getelementptr inbounds nuw i8, ptr %5, i64 352
  %46 = load i16, ptr %45, align 8
  %47 = and i16 %46, 512
  %.not = icmp eq i16 %47, 0
  %48 = getelementptr inbounds nuw i8, ptr %2, i64 32
  %49 = load double, ptr %48, align 8, !tbaa !28
  %50 = fsub double %.sink, %49
  %51 = fsub double %50, %24
  %.sroa.6.1 = select i1 %.not, double %50, double %51
  %52 = getelementptr inbounds nuw i8, ptr %2, i64 72
  %53 = getelementptr inbounds nuw i8, ptr %2, i64 56
  %.pre = load ptr, ptr %11, align 8, !tbaa !13
  br label %54

._crit_edge:                                      ; preds = %67, %43
  tail call void @gvrender_end_label(ptr noundef nonnull %0) #16
  br label %.sink.split

54:                                               ; preds = %.lr.ph, %67
  %55 = phi ptr [ %.pre, %.lr.ph ], [ %69, %67 ]
  %.047 = phi i64 [ 0, %.lr.ph ], [ %73, %67 ]
  %.sroa.6.246 = phi double [ %.sroa.6.1, %.lr.ph ], [ %72, %67 ]
  %56 = getelementptr inbounds nuw %struct.textspan_t, ptr %55, i64 %.047, i32 7
  %57 = load i8, ptr %56, align 8, !tbaa !23
  %58 = load double, ptr %52, align 8, !tbaa !127
  switch i8 %57, label %67 [
    i8 108, label %59
    i8 114, label %63
  ]

59:                                               ; preds = %54
  %60 = load double, ptr %53, align 8, !tbaa !128
  %61 = fmul double %60, 5.000000e-01
  %62 = fsub double %58, %61
  br label %67

63:                                               ; preds = %54
  %64 = load double, ptr %53, align 8, !tbaa !128
  %65 = fmul double %64, 5.000000e-01
  %66 = fadd double %58, %65
  br label %67

67:                                               ; preds = %54, %63, %59
  %.sroa.0.0 = phi double [ %66, %63 ], [ %62, %59 ], [ %58, %54 ]
  %68 = getelementptr inbounds nuw %struct.textspan_t, ptr %55, i64 %.047
  tail call void @gvrender_textspan(ptr noundef nonnull %0, double %.sroa.0.0, double %.sroa.6.246, ptr noundef %68) #16
  %69 = load ptr, ptr %11, align 8, !tbaa !13
  %70 = getelementptr inbounds nuw %struct.textspan_t, ptr %69, i64 %.047, i32 6, i32 1
  %71 = load double, ptr %70, align 8, !tbaa !54
  %72 = fsub double %.sroa.6.246, %71
  %73 = add nuw i64 %.047, 1
  %74 = load i64, ptr %15, align 8, !tbaa !13
  %75 = icmp ult i64 %73, %74
  br i1 %75, label %54, label %._crit_edge, !llvm.loop !129

.sink.split:                                      ; preds = %12, %._crit_edge
  store i32 %7, ptr %6, align 8, !tbaa !121
  br label %76

76:                                               ; preds = %.sink.split, %14
  ret void
}